; Function Attrs: mustprogress nofree norecurse nosync nounwind willreturn memory(argmem: readwrite) uwtable
define internal noundef zeroext i1 @"_ZNSt17_Function_handlerIFviEZN8facebook6hermes7tracing20TracingHermesRuntimeC1ERSt10unique_ptrINS2_13HermesRuntimeESt14default_deleteIS6_EEmRKN6hermes2vm13RuntimeConfigES5_IN4llvh11raw_ostreamES7_ISH_EESt8functionIFNSt7__cxx1112basic_stringIcSt11char_traitsIcESaIcEEEvEESK_IFvvEEE3$_0E10_M_managerERSt9_Any_dataRKSX_St18_Manager_operation"(ptr nocapture noundef nonnull writeonly align 8 dereferenceable(16) %__dest, ptr noundef nonnull align 8 dereferenceable(16) %__source, i32 noundef %__op) #17 align 2 personality ptr @__gxx_personality_v0 {
entry:
  switch i32 %__op, label %sw.epilog [
    i32 0, label %sw.bb
    i32 1, label %sw.bb1
    i32 2, label %sw.bb4.i
  ]

sw.bb:                                            ; preds = %entry
  store ptr @"_ZTIZN8facebook6hermes7tracing20TracingHermesRuntimeC1ERSt10unique_ptrINS0_13HermesRuntimeESt14default_deleteIS4_EEmRKN6hermes2vm13RuntimeConfigES3_IN4llvh11raw_ostreamES5_ISF_EESt8functionIFNSt7__cxx1112basic_stringIcSt11char_traitsIcESaIcEEEvEESI_IFvvEEE3$_0", ptr %__dest, align 8
  br label %sw.epilog

sw.bb1:                                           ; preds = %entry
  store ptr %__source, ptr %__dest, align 8
  br label %sw.epilog

sw.bb4.i:                                         ; preds = %entry
  %call5.val.i = load i64, ptr %__source, align 8
  store i64 %call5.val.i, ptr %__dest, align 8
  br label %sw.epilog

sw.epilog:                                        ; preds = %entry, %sw.bb4.i, %sw.bb1, %sw.bb
  ret i1 false
}